target datalayout = "e-m:e-p270:32:32-p271:32:32-p272:64:64-i64:64-i128:128-f80:128-n8:16:32:64-S128"
target triple = "x86_64-pc-linux-gnu"

%struct.expert_field = type { i32, i32 }
%struct._uuid_t = type { i16, i8, [16 x i8] }
%struct._packet_info = type { ptr, ptr, i32, i32, %struct.nstime_t, %struct.nstime_t, %struct.nstime_t, i8, ptr, ptr, ptr, ptr, %struct._address, %struct._address, %struct._address, %struct._address, %struct._address, %struct._address, i32, ptr, i8, [3 x i8], %struct.anon, i32, i32, i32, i32, ptr, i8, ptr, ptr, i16, i16, i32, i32, i16, i32, i32, ptr, ptr, ptr, i8, i8, i16, i16, i16, i32, i16, i16, ptr, ptr, ptr, ptr, ptr, i32, i32 }
%struct.nstime_t = type { i64, i32 }
%struct._address = type { i32, i32, ptr, ptr }
%struct.anon = type { i8, [3 x i8] }

@hf_btatt_value = internal global i32 0, align 4
@hf_btatt_uuid16 = internal global i32 0, align 4
@hf_btatt_uuid128 = internal global i32 0, align 4
@ei_btatt_bad_data = internal global %struct.expert_field zeroinitializer, align 4
@.str.3217 = private unnamed_addr constant [6 x i8] c" (%s)\00", align 1

; Function Attrs: null_pointer_is_valid sspstrong uwtable
define internal i32 @dissect_gatt_uuid(ptr noundef %0, ptr noundef %1, ptr noundef %2, i32 noundef %3) #0 {
  %5 = alloca ptr, align 8
  %6 = alloca ptr, align 8
  %7 = alloca ptr, align 8
  %8 = alloca i32, align 4
  %9 = alloca ptr, align 8
  %10 = alloca %struct._uuid_t, align 2
  %11 = alloca %struct._uuid_t, align 2
  store ptr %0, ptr %5, align 8
  store ptr %1, ptr %6, align 8
  store ptr %2, ptr %7, align 8
  store i32 %3, ptr %8, align 4
  call void @llvm.lifetime.start.p0(i64 8, ptr %9) #12
  call void @llvm.lifetime.start.p0(i64 20, ptr %10) #12
  %12 = load ptr, ptr %7, align 8
  %13 = load i32, ptr %8, align 4
  %14 = call i32 @tvb_reported_length_remaining(ptr noundef %12, i32 noundef %13)
  %15 = icmp eq i32 %14, 2
  br i1 %15, label %16, label %24

16:                                               ; preds = %4
  %17 = load ptr, ptr %5, align 8
  %18 = load i32, ptr @hf_btatt_uuid16, align 4
  %19 = load ptr, ptr %7, align 8
  %20 = load i32, ptr %8, align 4
  %21 = call ptr @proto_tree_add_item(ptr noundef %17, i32 noundef %18, ptr noundef %19, i32 noundef %20, i32 noundef 2, i32 noundef -2147483648)
  %22 = load i32, ptr %8, align 4
  %23 = add i32 %22, 2
  store i32 %23, ptr %8, align 4
  br label %56

24:                                               ; preds = %4
  %25 = load ptr, ptr %7, align 8
  %26 = load i32, ptr %8, align 4
  %27 = call i32 @tvb_reported_length_remaining(ptr noundef %25, i32 noundef %26)
  %28 = icmp eq i32 %27, 16
  br i1 %28, label %29, label %44

29:                                               ; preds = %24
  %30 = load ptr, ptr %5, align 8
  %31 = load i32, ptr @hf_btatt_uuid128, align 4
  %32 = load ptr, ptr %7, align 8
  %33 = load i32, ptr %8, align 4
  %34 = call ptr @proto_tree_add_item(ptr noundef %30, i32 noundef %31, ptr noundef %32, i32 noundef %33, i32 noundef 16, i32 noundef 0)
  store ptr %34, ptr %9, align 8
  call void @llvm.lifetime.start.p0(i64 20, ptr %11) #12
  %35 = load ptr, ptr %7, align 8
  %36 = load i32, ptr %8, align 4
  call void @get_bluetooth_uuid(ptr dead_on_unwind writable sret(%struct._uuid_t) align 2 %11, ptr noundef %35, i32 noundef %36, i32 noundef 16)
  call void @llvm.memcpy.p0.p0.i64(ptr align 2 %10, ptr align 2 %11, i64 20, i1 false)
  call void @llvm.lifetime.end.p0(i64 20, ptr %11) #12
  %37 = load ptr, ptr %9, align 8
  %38 = load ptr, ptr %6, align 8
  %39 = getelementptr inbounds nuw %struct._packet_info, ptr %38, i32 0, i32 51
  %40 = load ptr, ptr %39, align 8
  %41 = call ptr @print_bluetooth_uuid(ptr noundef %40, ptr noundef %10)
  call void (ptr, ptr, ...) @proto_item_append_text(ptr noundef %37, ptr noundef @.str.3217, ptr noundef %41)
  %42 = load i32, ptr %8, align 4
  %43 = add i32 %42, 16
  store i32 %43, ptr %8, align 4
  br label %55

44:                                               ; preds = %24
  %45 = load ptr, ptr %5, align 8
  %46 = load i32, ptr @hf_btatt_value, align 4
  %47 = load ptr, ptr %7, align 8
  %48 = load i32, ptr %8, align 4
  %49 = call ptr @proto_tree_add_item(ptr noundef %45, i32 noundef %46, ptr noundef %47, i32 noundef %48, i32 noundef -1, i32 noundef 0)
  store ptr %49, ptr %9, align 8
  %50 = load ptr, ptr %6, align 8
  %51 = load ptr, ptr %9, align 8
  %52 = call ptr @expert_add_info(ptr noundef %50, ptr noundef %51, ptr noundef @ei_btatt_bad_data)
  %53 = load ptr, ptr %7, align 8
  %54 = call i32 @tvb_captured_length(ptr noundef %53)
  store i32 %54, ptr %8, align 4
  br label %55

55:                                               ; preds = %44, %29
  br label %56

56:                                               ; preds = %55, %16
  %57 = load i32, ptr %8, align 4
  call void @llvm.lifetime.end.p0(i64 20, ptr %10) #12
  call void @llvm.lifetime.end.p0(i64 8, ptr %9) #12
  ret i32 %57
}