; Function Attrs: null_pointer_is_valid sspstrong uwtable
define internal fastcc i32 @dissect_gatt_uuid(ptr noundef %0, ptr noundef %1, ptr noundef %2, i32 noundef %3) unnamed_addr #1 {
  %5 = alloca %struct._uuid_t, align 2
  call void @llvm.lifetime.start.p0(i64 20, ptr nonnull %5) #14
  %6 = tail call i32 @tvb_reported_length_remaining(ptr noundef %2, i32 noundef %3)
  %7 = icmp eq i32 %6, 2
  br i1 %7, label %8, label %12

8:                                                ; preds = %4
  %9 = load i32, ptr @hf_btatt_uuid16, align 4
  %10 = tail call ptr @proto_tree_add_item(ptr noundef %0, i32 noundef %9, ptr noundef %2, i32 noundef %3, i32 noundef 2, i32 noundef -2147483648)
  %11 = add i32 %3, 2
  br label %27

12:                                               ; preds = %4
  %13 = tail call i32 @tvb_reported_length_remaining(ptr noundef %2, i32 noundef %3)
  %14 = icmp eq i32 %13, 16
  br i1 %14, label %15, label %22

15:                                               ; preds = %12
  %16 = load i32, ptr @hf_btatt_uuid128, align 4
  %17 = tail call ptr @proto_tree_add_item(ptr noundef %0, i32 noundef %16, ptr noundef %2, i32 noundef %3, i32 noundef 16, i32 noundef 0)
  call void @get_bluetooth_uuid(ptr dead_on_unwind nonnull writable sret(%struct._uuid_t) align 2 %5, ptr noundef %2, i32 noundef %3, i32 noundef 16)
  %18 = getelementptr inbounds nuw i8, ptr %1, i64 408
  %19 = load ptr, ptr %18, align 8
  %20 = call ptr @print_bluetooth_uuid(ptr noundef %19, ptr noundef nonnull %5)
  call void (ptr, ptr, ...) @proto_item_append_text(ptr noundef %17, ptr noundef nonnull @.str.3217, ptr noundef %20)
  %21 = add i32 %3, 16
  br label %27

22:                                               ; preds = %12
  %23 = load i32, ptr @hf_btatt_value, align 4
  %24 = tail call ptr @proto_tree_add_item(ptr noundef %0, i32 noundef %23, ptr noundef %2, i32 noundef %3, i32 noundef -1, i32 noundef 0)
  %25 = tail call ptr @expert_add_info(ptr noundef %1, ptr noundef %24, ptr noundef nonnull @ei_btatt_bad_data)
  %26 = tail call i32 @tvb_captured_length(ptr noundef %2)
  br label %27

27:                                               ; preds = %15, %22, %8
  %.0 = phi i32 [ %11, %8 ], [ %21, %15 ], [ %26, %22 ]
  call void @llvm.lifetime.end.p0(i64 20, ptr nonnull %5) #14
  ret i32 %.0
}